; Function Attrs: nounwind uwtable
define internal void @cairogen_end_job(ptr noundef captures(none) %0) #0 {
  %2 = getelementptr inbounds nuw i8, ptr %0, i64 256
  %3 = load ptr, ptr %2, align 8, !tbaa !32
  %4 = getelementptr inbounds nuw i8, ptr %0, i64 264
  %5 = load i8, ptr %4, align 8, !tbaa !3, !range !30, !noundef !31
  %6 = trunc nuw i8 %5 to i1
  br i1 %6, label %7, label %8

7:                                                ; preds = %1
  tail call void @cairo_restore(ptr noundef %3) #20
  br label %9

8:                                                ; preds = %1
  tail call void @cairo_destroy(ptr noundef %3) #20
  store ptr null, ptr %2, align 8, !tbaa !32
  br label %9

9:                                                ; preds = %8, %7
  ret void
}